target datalayout = "e-m:e-p270:32:32-p271:32:32-p272:64:64-i64:64-i128:128-f80:128-n8:16:32:64-S128"
target triple = "x86_64-unknown-linux-gnu"

%struct.b3DbvtProxy = type <{ %struct.b3BroadphaseProxy, ptr, [2 x ptr], i32, [4 x i8] }>
%struct.b3BroadphaseProxy = type { ptr, i32, i32, i32, [12 x i8], %class.b3Vector3, %class.b3Vector3 }
%class.b3Vector3 = type { %union.anon }
%union.anon = type { [4 x float] }
%struct.b3DynamicBvhBroadphase = type <{ ptr, [2 x %struct.b3DynamicBvh], [3 x ptr], %class.b3AlignedObjectArray.4, ptr, float, i32, i32, i32, i32, i32, i32, i32, i32, float, i32, i32, i8, i8, i8, [5 x i8] }>
%struct.b3DynamicBvh = type { ptr, ptr, i32, i32, i32, [4 x i8], %class.b3AlignedObjectArray, %class.b3AlignedObjectArray.0 }
%class.b3AlignedObjectArray = type <{ %class.b3AlignedAllocator, [3 x i8], i32, i32, [4 x i8], ptr, i8, [7 x i8] }>
%class.b3AlignedAllocator = type { i8 }
%class.b3AlignedObjectArray.0 = type <{ %class.b3AlignedAllocator.1, [3 x i8], i32, i32, [4 x i8], ptr, i8, [7 x i8] }>
%class.b3AlignedAllocator.1 = type { i8 }
%class.b3AlignedObjectArray.4 = type <{ %class.b3AlignedAllocator.5, [3 x i8], i32, i32, [4 x i8], ptr, i8, [7 x i8] }>
%class.b3AlignedAllocator.5 = type { i8 }
%struct.b3DbvtAabbMm = type { %class.b3Vector3, %class.b3Vector3 }
%struct.b3DbvtTreeCollider = type { %"struct.b3DynamicBvh::ICollide", ptr, ptr }
%"struct.b3DynamicBvh::ICollide" = type { ptr }

; Function Attrs: mustprogress nounwind uwtable
define linkonce_odr dso_local void @_ZN12b3DynamicBvh8ICollideD2Ev(ptr noundef nonnull align 8 dereferenceable(8) %this) unnamed_addr #3 comdat align 2 {
entry:
  %this.addr = alloca ptr, align 8
  store ptr %this, ptr %this.addr, align 8
  ret void
}

; Function Attrs: mustprogress nounwind uwtable
define linkonce_odr dso_local void @_ZN12b3DynamicBvh8ICollideC2Ev(ptr noundef nonnull align 8 dereferenceable(8) %this) unnamed_addr #3 comdat align 2 {
entry:
  %this.addr = alloca ptr, align 8
  store ptr %this, ptr %this.addr, align 8
  %this1 = load ptr, ptr %this.addr, align 8
  store ptr getelementptr inbounds ({ [9 x ptr] }, ptr @_ZTVN12b3DynamicBvh8ICollideE, i32 0, i32 0, i32 2), ptr %this1, align 8
  ret void
}

; Function Attrs: mustprogress nounwind uwtable
define linkonce_odr dso_local void @_ZN18b3DbvtTreeColliderD2Ev(ptr noundef nonnull align 8 dereferenceable(24) %this) unnamed_addr #3 comdat align 2 {
entry:
  %this.addr = alloca ptr, align 8
  store ptr %this, ptr %this.addr, align 8
  %this1 = load ptr, ptr %this.addr, align 8
  call void @_ZN12b3DynamicBvh8ICollideD2Ev(ptr noundef nonnull align 8 dereferenceable(8) %this1) #9
  ret void
}

; Function Attrs: mustprogress nounwind uwtable
define linkonce_odr dso_local void @_ZN18b3DbvtTreeColliderC2EP22b3DynamicBvhBroadphase(ptr noundef nonnull align 8 dereferenceable(24) %this, ptr noundef %p) unnamed_addr #3 comdat align 2 {
entry:
  %this.addr = alloca ptr, align 8
  %p.addr = alloca ptr, align 8
  store ptr %this, ptr %this.addr, align 8
  store ptr %p, ptr %p.addr, align 8
  %this1 = load ptr, ptr %this.addr, align 8
  call void @_ZN12b3DynamicBvh8ICollideC2Ev(ptr noundef nonnull align 8 dereferenceable(8) %this1) #9
  store ptr getelementptr inbounds ({ [9 x ptr] }, ptr @_ZTV18b3DbvtTreeCollider, i32 0, i32 0, i32 2), ptr %this1, align 8
  %pbp = getelementptr inbounds %struct.b3DbvtTreeCollider, ptr %this1, i32 0, i32 1
  %0 = load ptr, ptr %p.addr, align 8
  store ptr %0, ptr %pbp, align 8
  ret void
}

; Function Attrs: mustprogress nounwind uwtable
define internal void @_ZL12b3ListAppendI11b3DbvtProxyEvPT_RS2_(ptr noundef %item, ptr noundef nonnull align 8 dereferenceable(8) %list) #3 {
entry:
  %item.addr = alloca ptr, align 8
  %list.addr = alloca ptr, align 8
  store ptr %item, ptr %item.addr, align 8
  store ptr %list, ptr %list.addr, align 8
  %0 = load ptr, ptr %item.addr, align 8
  %links = getelementptr inbounds %struct.b3DbvtProxy, ptr %0, i32 0, i32 2
  %arrayidx = getelementptr inbounds [2 x ptr], ptr %links, i64 0, i64 0
  store ptr null, ptr %arrayidx, align 8
  %1 = load ptr, ptr %list.addr, align 8
  %2 = load ptr, ptr %1, align 8
  %3 = load ptr, ptr %item.addr, align 8
  %links1 = getelementptr inbounds %struct.b3DbvtProxy, ptr %3, i32 0, i32 2
  %arrayidx2 = getelementptr inbounds [2 x ptr], ptr %links1, i64 0, i64 1
  store ptr %2, ptr %arrayidx2, align 8
  %4 = load ptr, ptr %list.addr, align 8
  %5 = load ptr, ptr %4, align 8
  %tobool = icmp ne ptr %5, null
  br i1 %tobool, label %if.then, label %if.end

if.then:                                          ; preds = %entry
  %6 = load ptr, ptr %item.addr, align 8
  %7 = load ptr, ptr %list.addr, align 8
  %8 = load ptr, ptr %7, align 8
  %links3 = getelementptr inbounds %struct.b3DbvtProxy, ptr %8, i32 0, i32 2
  %arrayidx4 = getelementptr inbounds [2 x ptr], ptr %links3, i64 0, i64 0
  store ptr %6, ptr %arrayidx4, align 8
  br label %if.end

if.end:                                           ; preds = %if.then, %entry
  %9 = load ptr, ptr %item.addr, align 8
  %10 = load ptr, ptr %list.addr, align 8
  store ptr %9, ptr %10, align 8
  ret void
}

; Function Attrs: mustprogress nounwind uwtable
define internal void @_ZL12b3ListRemoveI11b3DbvtProxyEvPT_RS2_(ptr noundef %item, ptr noundef nonnull align 8 dereferenceable(8) %list) #3 {
entry:
  %item.addr = alloca ptr, align 8
  %list.addr = alloca ptr, align 8
  store ptr %item, ptr %item.addr, align 8
  store ptr %list, ptr %list.addr, align 8
  %0 = load ptr, ptr %item.addr, align 8
  %links = getelementptr inbounds %struct.b3DbvtProxy, ptr %0, i32 0, i32 2
  %arrayidx = getelementptr inbounds [2 x ptr], ptr %links, i64 0, i64 0
  %1 = load ptr, ptr %arrayidx, align 8
  %tobool = icmp ne ptr %1, null
  br i1 %tobool, label %if.then, label %if.else

if.then:                                          ; preds = %entry
  %2 = load ptr, ptr %item.addr, align 8
  %links1 = getelementptr inbounds %struct.b3DbvtProxy, ptr %2, i32 0, i32 2
  %arrayidx2 = getelementptr inbounds [2 x ptr], ptr %links1, i64 0, i64 1
  %3 = load ptr, ptr %arrayidx2, align 8
  %4 = load ptr, ptr %item.addr, align 8
  %links3 = getelementptr inbounds %struct.b3DbvtProxy, ptr %4, i32 0, i32 2
  %arrayidx4 = getelementptr inbounds [2 x ptr], ptr %links3, i64 0, i64 0
  %5 = load ptr, ptr %arrayidx4, align 8
  %links5 = getelementptr inbounds %struct.b3DbvtProxy, ptr %5, i32 0, i32 2
  %arrayidx6 = getelementptr inbounds [2 x ptr], ptr %links5, i64 0, i64 1
  store ptr %3, ptr %arrayidx6, align 8
  br label %if.end

if.else:                                          ; preds = %entry
  %6 = load ptr, ptr %item.addr, align 8
  %links7 = getelementptr inbounds %struct.b3DbvtProxy, ptr %6, i32 0, i32 2
  %arrayidx8 = getelementptr inbounds [2 x ptr], ptr %links7, i64 0, i64 1
  %7 = load ptr, ptr %arrayidx8, align 8
  %8 = load ptr, ptr %list.addr, align 8
  store ptr %7, ptr %8, align 8
  br label %if.end

if.end:                                           ; preds = %if.else, %if.then
  %9 = load ptr, ptr %item.addr, align 8
  %links9 = getelementptr inbounds %struct.b3DbvtProxy, ptr %9, i32 0, i32 2
  %arrayidx10 = getelementptr inbounds [2 x ptr], ptr %links9, i64 0, i64 1
  %10 = load ptr, ptr %arrayidx10, align 8
  %tobool11 = icmp ne ptr %10, null
  br i1 %tobool11, label %if.then12, label %if.end19

if.then12:                                        ; preds = %if.end
  %11 = load ptr, ptr %item.addr, align 8
  %links13 = getelementptr inbounds %struct.b3DbvtProxy, ptr %11, i32 0, i32 2
  %arrayidx14 = getelementptr inbounds [2 x ptr], ptr %links13, i64 0, i64 0
  %12 = load ptr, ptr %arrayidx14, align 8
  %13 = load ptr, ptr %item.addr, align 8
  %links15 = getelementptr inbounds %struct.b3DbvtProxy, ptr %13, i32 0, i32 2
  %arrayidx16 = getelementptr inbounds [2 x ptr], ptr %links15, i64 0, i64 1
  %14 = load ptr, ptr %arrayidx16, align 8
  %links17 = getelementptr inbounds %struct.b3DbvtProxy, ptr %14, i32 0, i32 2
  %arrayidx18 = getelementptr inbounds [2 x ptr], ptr %links17, i64 0, i64 0
  store ptr %12, ptr %arrayidx18, align 8
  br label %if.end19

if.end19:                                         ; preds = %if.then12, %if.end
  ret void
}

; Function Attrs: mustprogress nounwind uwtable
define linkonce_odr dso_local void @_ZN12b3DbvtAabbMm6FromMMERK9b3Vector3S2_(ptr noalias sret(%struct.b3DbvtAabbMm) align 16 %agg.result, ptr noundef nonnull align 16 dereferenceable(16) %mi, ptr noundef nonnull align 16 dereferenceable(16) %mx) #3 comdat align 2 {
entry:
  %mi.addr = alloca ptr, align 8
  %mx.addr = alloca ptr, align 8
  store ptr %mi, ptr %mi.addr, align 8
  store ptr %mx, ptr %mx.addr, align 8
  %0 = load ptr, ptr %mi.addr, align 8
  %mi1 = getelementptr inbounds %struct.b3DbvtAabbMm, ptr %agg.result, i32 0, i32 0
  call void @llvm.memcpy.p0.p0.i64(ptr align 16 %mi1, ptr align 16 %0, i64 16, i1 false)
  %1 = load ptr, ptr %mx.addr, align 8
  %mx2 = getelementptr inbounds %struct.b3DbvtAabbMm, ptr %agg.result, i32 0, i32 1
  call void @llvm.memcpy.p0.p0.i64(ptr align 16 %mx2, ptr align 16 %1, i64 16, i1 false)
  ret void
}

; Function Attrs: mustprogress uwtable
define dso_local void @_ZN22b3DynamicBvhBroadphase18setAabbForceUpdateEP17b3BroadphaseProxyRK9b3Vector3S4_P12b3Dispatcher(ptr noundef nonnull align 8 dereferenceable(315) %this, ptr noundef %absproxy, ptr noundef nonnull align 16 dereferenceable(16) %aabbMin, ptr noundef nonnull align 16 dereferenceable(16) %aabbMax, ptr noundef %0) #0 align 2 personality ptr @__gxx_personality_v0 {
entry:
  %this.addr = alloca ptr, align 8
  %absproxy.addr = alloca ptr, align 8
  %aabbMin.addr = alloca ptr, align 8
  %aabbMax.addr = alloca ptr, align 8
  %.addr = alloca ptr, align 8
  %proxy = alloca ptr, align 8
  %aabb = alloca %struct.b3DbvtAabbMm, align 16
  %docollide = alloca i8, align 1
  %collider = alloca %struct.b3DbvtTreeCollider, align 8
  %exn.slot = alloca ptr, align 8
  %ehselector.slot = alloca i32, align 4
  store ptr %this, ptr %this.addr, align 8
  store ptr %absproxy, ptr %absproxy.addr, align 8
  store ptr %aabbMin, ptr %aabbMin.addr, align 8
  store ptr %aabbMax, ptr %aabbMax.addr, align 8
  store ptr %0, ptr %.addr, align 8
  %this1 = load ptr, ptr %this.addr, align 8
  %1 = load ptr, ptr %absproxy.addr, align 8
  store ptr %1, ptr %proxy, align 8
  %2 = load ptr, ptr %aabbMin.addr, align 8
  %3 = load ptr, ptr %aabbMax.addr, align 8
  call void @_ZN12b3DbvtAabbMm6FromMMERK9b3Vector3S2_(ptr sret(%struct.b3DbvtAabbMm) align 16 %aabb, ptr noundef nonnull align 16 dereferenceable(16) %2, ptr noundef nonnull align 16 dereferenceable(16) %3)
  store i8 0, ptr %docollide, align 1
  %4 = load ptr, ptr %proxy, align 8
  %stage = getelementptr inbounds %struct.b3DbvtProxy, ptr %4, i32 0, i32 3
  %5 = load i32, ptr %stage, align 8
  %cmp = icmp eq i32 %5, 2
  br i1 %cmp, label %if.then, label %if.else

if.then:                                          ; preds = %entry
  %m_sets = getelementptr inbounds %struct.b3DynamicBvhBroadphase, ptr %this1, i32 0, i32 1
  %arrayidx = getelementptr inbounds [2 x %struct.b3DynamicBvh], ptr %m_sets, i64 0, i64 1
  %6 = load ptr, ptr %proxy, align 8
  %leaf = getelementptr inbounds %struct.b3DbvtProxy, ptr %6, i32 0, i32 1
  %7 = load ptr, ptr %leaf, align 16
  call void @_ZN12b3DynamicBvh6removeEP10b3DbvtNode(ptr noundef nonnull align 8 dereferenceable(96) %arrayidx, ptr noundef %7)
  %m_sets2 = getelementptr inbounds %struct.b3DynamicBvhBroadphase, ptr %this1, i32 0, i32 1
  %arrayidx3 = getelementptr inbounds [2 x %struct.b3DynamicBvh], ptr %m_sets2, i64 0, i64 0
  %8 = load ptr, ptr %proxy, align 8
  %call = call noundef ptr @_ZN12b3DynamicBvh6insertERK12b3DbvtAabbMmPv(ptr noundef nonnull align 8 dereferenceable(96) %arrayidx3, ptr noundef nonnull align 16 dereferenceable(32) %aabb, ptr noundef %8)
  %9 = load ptr, ptr %proxy, align 8
  %leaf4 = getelementptr inbounds %struct.b3DbvtProxy, ptr %9, i32 0, i32 1
  store ptr %call, ptr %leaf4, align 16
  store i8 1, ptr %docollide, align 1
  br label %if.end

if.else:                                          ; preds = %entry
  %m_updates_call = getelementptr inbounds %struct.b3DynamicBvhBroadphase, ptr %this1, i32 0, i32 12
  %10 = load i32, ptr %m_updates_call, align 4
  %inc = add i32 %10, 1
  store i32 %inc, ptr %m_updates_call, align 4
  %m_sets5 = getelementptr inbounds %struct.b3DynamicBvhBroadphase, ptr %this1, i32 0, i32 1
  %arrayidx6 = getelementptr inbounds [2 x %struct.b3DynamicBvh], ptr %m_sets5, i64 0, i64 0
  %11 = load ptr, ptr %proxy, align 8
  %leaf7 = getelementptr inbounds %struct.b3DbvtProxy, ptr %11, i32 0, i32 1
  %12 = load ptr, ptr %leaf7, align 16
  call void @_ZN12b3DynamicBvh6updateEP10b3DbvtNodeR12b3DbvtAabbMm(ptr noundef nonnull align 8 dereferenceable(96) %arrayidx6, ptr noundef %12, ptr noundef nonnull align 16 dereferenceable(32) %aabb)
  %m_updates_done = getelementptr inbounds %struct.b3DynamicBvhBroadphase, ptr %this1, i32 0, i32 13
  %13 = load i32, ptr %m_updates_done, align 8
  %inc8 = add i32 %13, 1
  store i32 %inc8, ptr %m_updates_done, align 8
  store i8 1, ptr %docollide, align 1
  br label %if.end

if.end:                                           ; preds = %if.else, %if.then
  %14 = load ptr, ptr %proxy, align 8
  %m_stageRoots = getelementptr inbounds %struct.b3DynamicBvhBroadphase, ptr %this1, i32 0, i32 2
  %15 = load ptr, ptr %proxy, align 8
  %stage9 = getelementptr inbounds %struct.b3DbvtProxy, ptr %15, i32 0, i32 3
  %16 = load i32, ptr %stage9, align 8
  %idxprom = sext i32 %16 to i64
  %arrayidx10 = getelementptr inbounds [3 x ptr], ptr %m_stageRoots, i64 0, i64 %idxprom
  call void @_ZL12b3ListRemoveI11b3DbvtProxyEvPT_RS2_(ptr noundef %14, ptr noundef nonnull align 8 dereferenceable(8) %arrayidx10)
  %17 = load ptr, ptr %aabbMin.addr, align 8
  %18 = load ptr, ptr %proxy, align 8
  %m_aabbMin = getelementptr inbounds %struct.b3BroadphaseProxy, ptr %18, i32 0, i32 5
  call void @llvm.memcpy.p0.p0.i64(ptr align 16 %m_aabbMin, ptr align 16 %17, i64 16, i1 false)
  %19 = load ptr, ptr %aabbMax.addr, align 8
  %20 = load ptr, ptr %proxy, align 8
  %m_aabbMax = getelementptr inbounds %struct.b3BroadphaseProxy, ptr %20, i32 0, i32 6
  call void @llvm.memcpy.p0.p0.i64(ptr align 16 %m_aabbMax, ptr align 16 %19, i64 16, i1 false)
  %m_stageCurrent = getelementptr inbounds %struct.b3DynamicBvhBroadphase, ptr %this1, i32 0, i32 6
  %21 = load i32, ptr %m_stageCurrent, align 4
  %22 = load ptr, ptr %proxy, align 8
  %stage11 = getelementptr inbounds %struct.b3DbvtProxy, ptr %22, i32 0, i32 3
  store i32 %21, ptr %stage11, align 8
  %23 = load ptr, ptr %proxy, align 8
  %m_stageRoots12 = getelementptr inbounds %struct.b3DynamicBvhBroadphase, ptr %this1, i32 0, i32 2
  %m_stageCurrent13 = getelementptr inbounds %struct.b3DynamicBvhBroadphase, ptr %this1, i32 0, i32 6
  %24 = load i32, ptr %m_stageCurrent13, align 4
  %idxprom14 = sext i32 %24 to i64
  %arrayidx15 = getelementptr inbounds [3 x ptr], ptr %m_stageRoots12, i64 0, i64 %idxprom14
  call void @_ZL12b3ListAppendI11b3DbvtProxyEvPT_RS2_(ptr noundef %23, ptr noundef nonnull align 8 dereferenceable(8) %arrayidx15)
  %25 = load i8, ptr %docollide, align 1
  %tobool = trunc i8 %25 to i1
  br i1 %tobool, label %if.then16, label %if.end32

if.then16:                                        ; preds = %if.end
  %m_needcleanup = getelementptr inbounds %struct.b3DynamicBvhBroadphase, ptr %this1, i32 0, i32 19
  store i8 1, ptr %m_needcleanup, align 2
  %m_deferedcollide = getelementptr inbounds %struct.b3DynamicBvhBroadphase, ptr %this1, i32 0, i32 18
  %26 = load i8, ptr %m_deferedcollide, align 1
  %tobool17 = trunc i8 %26 to i1
  br i1 %tobool17, label %if.end31, label %if.then18

if.then18:                                        ; preds = %if.then16
  call void @_ZN18b3DbvtTreeColliderC2EP22b3DynamicBvhBroadphase(ptr noundef nonnull align 8 dereferenceable(24) %collider, ptr noundef %this1)
  %m_sets19 = getelementptr inbounds %struct.b3DynamicBvhBroadphase, ptr %this1, i32 0, i32 1
  %arrayidx20 = getelementptr inbounds [2 x %struct.b3DynamicBvh], ptr %m_sets19, i64 0, i64 1
  %m_sets21 = getelementptr inbounds %struct.b3DynamicBvhBroadphase, ptr %this1, i32 0, i32 1
  %arrayidx22 = getelementptr inbounds [2 x %struct.b3DynamicBvh], ptr %m_sets21, i64 0, i64 1
  %m_root = getelementptr inbounds %struct.b3DynamicBvh, ptr %arrayidx22, i32 0, i32 0
  %27 = load ptr, ptr %m_root, align 8
  %28 = load ptr, ptr %proxy, align 8
  %leaf23 = getelementptr inbounds %struct.b3DbvtProxy, ptr %28, i32 0, i32 1
  %29 = load ptr, ptr %leaf23, align 16
  invoke void @_ZN12b3DynamicBvh24collideTTpersistentStackEPK10b3DbvtNodeS2_RNS_8ICollideE(ptr noundef nonnull align 8 dereferenceable(96) %arrayidx20, ptr noundef %27, ptr noundef %29, ptr noundef nonnull align 8 dereferenceable(8) %collider)
          to label %invoke.cont unwind label %lpad

invoke.cont:                                      ; preds = %if.then18
  %m_sets24 = getelementptr inbounds %struct.b3DynamicBvhBroadphase, ptr %this1, i32 0, i32 1
  %arrayidx25 = getelementptr inbounds [2 x %struct.b3DynamicBvh], ptr %m_sets24, i64 0, i64 0
  %m_sets26 = getelementptr inbounds %struct.b3DynamicBvhBroadphase, ptr %this1, i32 0, i32 1
  %arrayidx27 = getelementptr inbounds [2 x %struct.b3DynamicBvh], ptr %m_sets26, i64 0, i64 0
  %m_root28 = getelementptr inbounds %struct.b3DynamicBvh, ptr %arrayidx27, i32 0, i32 0
  %30 = load ptr, ptr %m_root28, align 8
  %31 = load ptr, ptr %proxy, align 8
  %leaf29 = getelementptr inbounds %struct.b3DbvtProxy, ptr %31, i32 0, i32 1
  %32 = load ptr, ptr %leaf29, align 16
  invoke void @_ZN12b3DynamicBvh24collideTTpersistentStackEPK10b3DbvtNodeS2_RNS_8ICollideE(ptr noundef nonnull align 8 dereferenceable(96) %arrayidx25, ptr noundef %30, ptr noundef %32, ptr noundef nonnull align 8 dereferenceable(8) %collider)
          to label %invoke.cont30 unwind label %lpad

invoke.cont30:                                    ; preds = %invoke.cont
  call void @_ZN18b3DbvtTreeColliderD2Ev(ptr noundef nonnull align 8 dereferenceable(24) %collider) #9
  br label %if.end31

lpad:                                             ; preds = %invoke.cont, %if.then18
  %33 = landingpad { ptr, i32 }
          cleanup
  %34 = extractvalue { ptr, i32 } %33, 0
  store ptr %34, ptr %exn.slot, align 8
  %35 = extractvalue { ptr, i32 } %33, 1
  store i32 %35, ptr %ehselector.slot, align 4
  call void @_ZN18b3DbvtTreeColliderD2Ev(ptr noundef nonnull align 8 dereferenceable(24) %collider) #9
  br label %eh.resume

if.end31:                                         ; preds = %invoke.cont30, %if.then16
  br label %if.end32

if.end32:                                         ; preds = %if.end31, %if.end
  ret void

eh.resume:                                        ; preds = %lpad
  %exn = load ptr, ptr %exn.slot, align 8
  %sel = load i32, ptr %ehselector.slot, align 4
  %lpad.val = insertvalue { ptr, i32 } poison, ptr %exn, 0
  %lpad.val33 = insertvalue { ptr, i32 } %lpad.val, i32 %sel, 1
  resume { ptr, i32 } %lpad.val33
}